target datalayout = "e-m:e-p270:32:32-p271:32:32-p272:64:64-i64:64-i128:128-f80:128-n8:16:32:64-S128"
target triple = "x86_64-pc-linux-gnu"

%struct.X509_pubkey_st = type { ptr, ptr, ptr, ptr, ptr, i8 }
%struct.evp_pkey_st = type { i32, i32, ptr, ptr, ptr, %union.legacy_pkey_st, %union.legacy_pkey_st, %struct.CRYPTO_REF_COUNT, ptr, ptr, i32, i8, %struct.crypto_ex_data_st, ptr, ptr, i64, ptr, i64, %struct.anon }
%union.legacy_pkey_st = type { ptr }
%struct.CRYPTO_REF_COUNT = type { i32 }
%struct.crypto_ex_data_st = type { ptr, ptr }
%struct.anon = type { i32, i32, i32 }
%struct.evp_pkey_asn1_method_st = type { i32, i32, i64, ptr, ptr, ptr, ptr, ptr, ptr, ptr, ptr, ptr, ptr, ptr, ptr, ptr, ptr, ptr, ptr, ptr, ptr, ptr, ptr, ptr, ptr, ptr, ptr, ptr, ptr, ptr, ptr, ptr, ptr, ptr, ptr, ptr, ptr, ptr, ptr, ptr, ptr }
%struct.buf_mem_st = type { i64, ptr, i64, i64 }

@X509_PUBKEY_it.local_it = internal constant { i8, [7 x i8], i64, ptr, i64, ptr, i64, ptr } { i8 4, [7 x i8] zeroinitializer, i64 16, ptr null, i64 0, ptr @x509_pubkey_ff, i64 0, ptr @.str.1 }, align 8
@.str.2 = private unnamed_addr constant [4 x i8] c"DER\00", align 1
@.str.3 = private unnamed_addr constant [21 x i8] c"SubjectPublicKeyInfo\00", align 1

; Function Attrs: nounwind uwtable
define ptr @X509_PUBKEY_it() #0 {
  ret ptr @X509_PUBKEY_it.local_it
}

; Function Attrs: nounwind uwtable
define void @X509_PUBKEY_free(ptr noundef %0) #0 {
  %2 = alloca ptr, align 8
  store ptr %0, ptr %2, align 8, !tbaa !14
  %3 = load ptr, ptr %2, align 8, !tbaa !14
  %4 = call ptr @X509_PUBKEY_it()
  call void @ASN1_item_free(ptr noundef %3, ptr noundef %4)
  ret void
}

; Function Attrs: nounwind uwtable
define i32 @i2d_X509_PUBKEY(ptr noundef %0, ptr noundef %1) #0 {
  %3 = alloca ptr, align 8
  %4 = alloca ptr, align 8
  store ptr %0, ptr %3, align 8, !tbaa !14
  store ptr %1, ptr %4, align 8, !tbaa !3
  %5 = load ptr, ptr %3, align 8, !tbaa !14
  %6 = load ptr, ptr %4, align 8, !tbaa !3
  %7 = call ptr @X509_PUBKEY_it()
  %8 = call i32 @ASN1_item_i2d(ptr noundef %5, ptr noundef %6, ptr noundef %7)
  ret i32 %8
}

; Function Attrs: nounwind uwtable
define ptr @X509_PUBKEY_new() #0 {
  %1 = call ptr @X509_PUBKEY_it()
  %2 = call ptr @ASN1_item_new(ptr noundef %1)
  ret ptr %2
}

; Function Attrs: nounwind uwtable
define i32 @i2d_PUBKEY(ptr noundef %0, ptr noundef %1) #0 {
  %3 = alloca i32, align 4
  %4 = alloca ptr, align 8
  %5 = alloca ptr, align 8
  %6 = alloca i32, align 4
  %7 = alloca i32, align 4
  %8 = alloca ptr, align 8
  %9 = alloca ptr, align 8
  %10 = alloca ptr, align 8
  %11 = alloca ptr, align 8
  store ptr %0, ptr %4, align 8, !tbaa !46
  store ptr %1, ptr %5, align 8, !tbaa !3
  call void @llvm.lifetime.start.p0(i64 4, ptr %6) #5
  store i32 -1, ptr %6, align 4, !tbaa !43
  %12 = load ptr, ptr %4, align 8, !tbaa !46
  %13 = icmp eq ptr %12, null
  br i1 %13, label %14, label %15

14:                                               ; preds = %2
  store i32 0, ptr %3, align 4
  store i32 1, ptr %7, align 4
  br label %122

15:                                               ; preds = %2
  %16 = load ptr, ptr %4, align 8, !tbaa !46
  %17 = getelementptr inbounds nuw %struct.evp_pkey_st, ptr %16, i32 0, i32 2
  %18 = load ptr, ptr %17, align 8, !tbaa !47
  %19 = icmp ne ptr %18, null
  br i1 %19, label %20, label %55

20:                                               ; preds = %15
  call void @llvm.lifetime.start.p0(i64 8, ptr %8) #5
  store ptr null, ptr %8, align 8, !tbaa !14
  %21 = call ptr @X509_PUBKEY_new()
  store ptr %21, ptr %8, align 8, !tbaa !14
  %22 = icmp eq ptr %21, null
  br i1 %22, label %23, label %24

23:                                               ; preds = %20
  store i32 -1, ptr %3, align 4
  store i32 1, ptr %7, align 4
  br label %52

24:                                               ; preds = %20
  %25 = load ptr, ptr %4, align 8, !tbaa !46
  %26 = getelementptr inbounds nuw %struct.evp_pkey_st, ptr %25, i32 0, i32 2
  %27 = load ptr, ptr %26, align 8, !tbaa !47
  %28 = getelementptr inbounds nuw %struct.evp_pkey_asn1_method_st, ptr %27, i32 0, i32 6
  %29 = load ptr, ptr %28, align 8, !tbaa !59
  %30 = icmp ne ptr %29, null
  br i1 %30, label %31, label %50

31:                                               ; preds = %24
  %32 = load ptr, ptr %4, align 8, !tbaa !46
  %33 = getelementptr inbounds nuw %struct.evp_pkey_st, ptr %32, i32 0, i32 2
  %34 = load ptr, ptr %33, align 8, !tbaa !47
  %35 = getelementptr inbounds nuw %struct.evp_pkey_asn1_method_st, ptr %34, i32 0, i32 6
  %36 = load ptr, ptr %35, align 8, !tbaa !59
  %37 = load ptr, ptr %8, align 8, !tbaa !14
  %38 = load ptr, ptr %4, align 8, !tbaa !46
  %39 = call i32 %36(ptr noundef %37, ptr noundef %38)
  %40 = icmp ne i32 %39, 0
  br i1 %40, label %41, label %50

41:                                               ; preds = %31
  %42 = load ptr, ptr %4, align 8, !tbaa !46
  %43 = load ptr, ptr %8, align 8, !tbaa !14
  %44 = getelementptr inbounds nuw %struct.X509_pubkey_st, ptr %43, i32 0, i32 2
  store ptr %42, ptr %44, align 8, !tbaa !30
  %45 = load ptr, ptr %8, align 8, !tbaa !14
  %46 = load ptr, ptr %5, align 8, !tbaa !3
  %47 = call i32 @i2d_X509_PUBKEY(ptr noundef %45, ptr noundef %46)
  store i32 %47, ptr %6, align 4, !tbaa !43
  %48 = load ptr, ptr %8, align 8, !tbaa !14
  %49 = getelementptr inbounds nuw %struct.X509_pubkey_st, ptr %48, i32 0, i32 2
  store ptr null, ptr %49, align 8, !tbaa !30
  br label %50

50:                                               ; preds = %41, %31, %24
  %51 = load ptr, ptr %8, align 8, !tbaa !14
  call void @X509_PUBKEY_free(ptr noundef %51)
  store i32 0, ptr %7, align 4
  br label %52

52:                                               ; preds = %50, %23
  call void @llvm.lifetime.end.p0(i64 8, ptr %8) #5
  %53 = load i32, ptr %7, align 4
  switch i32 %53, label %122 [
    i32 0, label %54
  ]

54:                                               ; preds = %52
  br label %120

55:                                               ; preds = %15
  %56 = load ptr, ptr %4, align 8, !tbaa !46
  %57 = getelementptr inbounds nuw %struct.evp_pkey_st, ptr %56, i32 0, i32 13
  %58 = load ptr, ptr %57, align 8, !tbaa !60
  %59 = icmp ne ptr %58, null
  br i1 %59, label %60, label %119

60:                                               ; preds = %55
  call void @llvm.lifetime.start.p0(i64 8, ptr %9) #5
  %61 = load ptr, ptr %4, align 8, !tbaa !46
  %62 = call ptr @OSSL_ENCODER_CTX_new_for_pkey(ptr noundef %61, i32 noundef 134, ptr noundef @.str.2, ptr noundef @.str.3, ptr noundef null)
  store ptr %62, ptr %9, align 8, !tbaa !61
  call void @llvm.lifetime.start.p0(i64 8, ptr %10) #5
  %63 = call ptr @BIO_s_mem()
  %64 = call ptr @BIO_new(ptr noundef %63)
  store ptr %64, ptr %10, align 8, !tbaa !64
  call void @llvm.lifetime.start.p0(i64 8, ptr %11) #5
  store ptr null, ptr %11, align 8, !tbaa !66
  %65 = load ptr, ptr %9, align 8, !tbaa !61
  %66 = call i32 @OSSL_ENCODER_CTX_get_num_encoders(ptr noundef %65)
  %67 = icmp ne i32 %66, 0
  br i1 %67, label %68, label %115

68:                                               ; preds = %60
  %69 = load ptr, ptr %10, align 8, !tbaa !64
  %70 = icmp ne ptr %69, null
  br i1 %70, label %71, label %115

71:                                               ; preds = %68
  %72 = load ptr, ptr %9, align 8, !tbaa !61
  %73 = load ptr, ptr %10, align 8, !tbaa !64
  %74 = call i32 @OSSL_ENCODER_to_bio(ptr noundef %72, ptr noundef %73)
  %75 = icmp ne i32 %74, 0
  br i1 %75, label %76, label %115

76:                                               ; preds = %71
  %77 = load ptr, ptr %10, align 8, !tbaa !64
  %78 = call i64 @BIO_ctrl(ptr noundef %77, i32 noundef 115, i64 noundef 0, ptr noundef %11)
  %79 = icmp sgt i64 %78, 0
  br i1 %79, label %80, label %115

80:                                               ; preds = %76
  %81 = load ptr, ptr %11, align 8, !tbaa !66
  %82 = getelementptr inbounds nuw %struct.buf_mem_st, ptr %81, i32 0, i32 0
  %83 = load i64, ptr %82, align 8, !tbaa !68
  %84 = trunc i64 %83 to i32
  store i32 %84, ptr %6, align 4, !tbaa !43
  %85 = load ptr, ptr %5, align 8, !tbaa !3
  %86 = icmp ne ptr %85, null
  br i1 %86, label %87, label %114

87:                                               ; preds = %80
  %88 = load ptr, ptr %5, align 8, !tbaa !3
  %89 = load ptr, ptr %88, align 8, !tbaa !12
  %90 = icmp eq ptr %89, null
  br i1 %90, label %91, label %100

91:                                               ; preds = %87
  %92 = load ptr, ptr %11, align 8, !tbaa !66
  %93 = getelementptr inbounds nuw %struct.buf_mem_st, ptr %92, i32 0, i32 1
  %94 = load ptr, ptr %93, align 8, !tbaa !70
  %95 = load ptr, ptr %5, align 8, !tbaa !3
  store ptr %94, ptr %95, align 8, !tbaa !12
  %96 = load ptr, ptr %11, align 8, !tbaa !66
  %97 = getelementptr inbounds nuw %struct.buf_mem_st, ptr %96, i32 0, i32 0
  store i64 0, ptr %97, align 8, !tbaa !68
  %98 = load ptr, ptr %11, align 8, !tbaa !66
  %99 = getelementptr inbounds nuw %struct.buf_mem_st, ptr %98, i32 0, i32 1
  store ptr null, ptr %99, align 8, !tbaa !70
  br label %113

100:                                              ; preds = %87
  %101 = load ptr, ptr %5, align 8, !tbaa !3
  %102 = load ptr, ptr %101, align 8, !tbaa !12
  %103 = load ptr, ptr %11, align 8, !tbaa !66
  %104 = getelementptr inbounds nuw %struct.buf_mem_st, ptr %103, i32 0, i32 1
  %105 = load ptr, ptr %104, align 8, !tbaa !70
  %106 = load i32, ptr %6, align 4, !tbaa !43
  %107 = sext i32 %106 to i64
  call void @llvm.memcpy.p0.p0.i64(ptr align 1 %102, ptr align 1 %105, i64 %107, i1 false)
  %108 = load i32, ptr %6, align 4, !tbaa !43
  %109 = load ptr, ptr %5, align 8, !tbaa !3
  %110 = load ptr, ptr %109, align 8, !tbaa !12
  %111 = sext i32 %108 to i64
  %112 = getelementptr inbounds i8, ptr %110, i64 %111
  store ptr %112, ptr %109, align 8, !tbaa !12
  br label %113

113:                                              ; preds = %100, %91
  br label %114

114:                                              ; preds = %113, %80
  br label %115

115:                                              ; preds = %114, %76, %71, %68, %60
  %116 = load ptr, ptr %10, align 8, !tbaa !64
  %117 = call i32 @BIO_free(ptr noundef %116)
  %118 = load ptr, ptr %9, align 8, !tbaa !61
  call void @OSSL_ENCODER_CTX_free(ptr noundef %118)
  call void @llvm.lifetime.end.p0(i64 8, ptr %11) #5
  call void @llvm.lifetime.end.p0(i64 8, ptr %10) #5
  call void @llvm.lifetime.end.p0(i64 8, ptr %9) #5
  br label %119

119:                                              ; preds = %115, %55
  br label %120

120:                                              ; preds = %119, %54
  %121 = load i32, ptr %6, align 4, !tbaa !43
  store i32 %121, ptr %3, align 4
  store i32 1, ptr %7, align 4
  br label %122

122:                                              ; preds = %120, %52, %14
  call void @llvm.lifetime.end.p0(i64 4, ptr %6) #5
  %123 = load i32, ptr %3, align 4
  ret i32 %123
}