; Function Attrs: nounwind uwtable
define i32 @i2d_PUBKEY(ptr noundef %0, ptr noundef %1) local_unnamed_addr #0 {
  %3 = alloca ptr, align 8
  %4 = icmp eq ptr %0, null
  br i1 %4, label %51, label %5

5:                                                ; preds = %2
  %6 = getelementptr inbounds nuw i8, ptr %0, i64 8
  %7 = load ptr, ptr %6, align 8, !tbaa !30
  %.not = icmp eq ptr %7, null
  br i1 %.not, label %20, label %8

8:                                                ; preds = %5
  %9 = tail call ptr @ASN1_item_new(ptr noundef nonnull @X509_PUBKEY_it.local_it) #9
  %.not45 = icmp eq ptr %9, null
  br i1 %.not45, label %51, label %10

10:                                               ; preds = %8
  %11 = load ptr, ptr %6, align 8, !tbaa !30
  %12 = getelementptr inbounds nuw i8, ptr %11, i64 40
  %13 = load ptr, ptr %12, align 8, !tbaa !44
  %.not43 = icmp eq ptr %13, null
  br i1 %.not43, label %19, label %14

14:                                               ; preds = %10
  %15 = tail call i32 %13(ptr noundef nonnull %9, ptr noundef nonnull %0) #9
  %.not44 = icmp eq i32 %15, 0
  br i1 %.not44, label %19, label %16

16:                                               ; preds = %14
  %17 = getelementptr inbounds nuw i8, ptr %9, i64 16
  store ptr %0, ptr %17, align 8, !tbaa !19
  %18 = tail call i32 @ASN1_item_i2d(ptr noundef nonnull %9, ptr noundef %1, ptr noundef nonnull @X509_PUBKEY_it.local_it) #9
  store ptr null, ptr %17, align 8, !tbaa !19
  br label %19

19:                                               ; preds = %16, %14, %10
  %.132 = phi i32 [ %18, %16 ], [ -1, %14 ], [ -1, %10 ]
  tail call void @ASN1_item_free(ptr noundef nonnull %9, ptr noundef nonnull @X509_PUBKEY_it.local_it) #9
  br label %51

20:                                               ; preds = %5
  %21 = getelementptr inbounds nuw i8, ptr %0, i64 96
  %22 = load ptr, ptr %21, align 8, !tbaa !45
  %.not40 = icmp eq ptr %22, null
  br i1 %.not40, label %51, label %23

23:                                               ; preds = %20
  %24 = tail call ptr @OSSL_ENCODER_CTX_new_for_pkey(ptr noundef nonnull %0, i32 noundef 134, ptr noundef nonnull @.str.2, ptr noundef nonnull @.str.3, ptr noundef null) #9
  %25 = tail call ptr @BIO_s_mem() #9
  %26 = tail call ptr @BIO_new(ptr noundef %25) #9
  call void @llvm.lifetime.start.p0(i64 8, ptr nonnull %3) #9
  store ptr null, ptr %3, align 8, !tbaa !48
  %27 = tail call i32 @OSSL_ENCODER_CTX_get_num_encoders(ptr noundef %24) #9
  %28 = icmp ne i32 %27, 0
  %29 = icmp ne ptr %26, null
  %or.cond = select i1 %28, i1 %29, i1 false
  br i1 %or.cond, label %30, label %49

30:                                               ; preds = %23
  %31 = tail call i32 @OSSL_ENCODER_to_bio(ptr noundef %24, ptr noundef nonnull %26) #9
  %.not41 = icmp eq i32 %31, 0
  br i1 %.not41, label %49, label %32

32:                                               ; preds = %30
  %33 = call i64 @BIO_ctrl(ptr noundef nonnull %26, i32 noundef 115, i64 noundef 0, ptr noundef nonnull %3) #9
  %34 = icmp sgt i64 %33, 0
  br i1 %34, label %35, label %49

35:                                               ; preds = %32
  %36 = load ptr, ptr %3, align 8, !tbaa !48
  %37 = load i64, ptr %36, align 8, !tbaa !50
  %38 = trunc i64 %37 to i32
  %.not42 = icmp eq ptr %1, null
  br i1 %.not42, label %49, label %39

39:                                               ; preds = %35
  %40 = load ptr, ptr %1, align 8, !tbaa !46
  %41 = icmp eq ptr %40, null
  %42 = getelementptr inbounds nuw i8, ptr %36, i64 8
  %43 = load ptr, ptr %42, align 8, !tbaa !52
  br i1 %41, label %44, label %45

44:                                               ; preds = %39
  store ptr %43, ptr %1, align 8, !tbaa !46
  call void @llvm.memset.p0.i64(ptr noundef nonnull align 8 dereferenceable(16) %36, i8 0, i64 16, i1 false)
  br label %49

45:                                               ; preds = %39
  %sext = shl i64 %37, 32
  %46 = ashr exact i64 %sext, 32
  call void @llvm.memcpy.p0.p0.i64(ptr nonnull align 1 %40, ptr align 1 %43, i64 %46, i1 false)
  %47 = load ptr, ptr %1, align 8, !tbaa !46
  %48 = getelementptr inbounds i8, ptr %47, i64 %46
  store ptr %48, ptr %1, align 8, !tbaa !46
  br label %49

49:                                               ; preds = %35, %45, %44, %32, %30, %23
  %.3 = phi i32 [ %38, %44 ], [ %38, %45 ], [ %38, %35 ], [ -1, %32 ], [ -1, %30 ], [ -1, %23 ]
  %50 = call i32 @BIO_free(ptr noundef %26) #9
  call void @OSSL_ENCODER_CTX_free(ptr noundef %24) #9
  call void @llvm.lifetime.end.p0(i64 8, ptr nonnull %3) #9
  br label %51

51:                                               ; preds = %19, %8, %49, %20, %2
  %.0 = phi i32 [ 0, %2 ], [ %.3, %49 ], [ -1, %20 ], [ %.132, %19 ], [ -1, %8 ]
  ret i32 %.0
}